; Function Attrs: nounwind uwtable
define noalias noundef nonnull ptr @l_MonadExcept_ofExcept___at___private_Lean_Elab_PreDefinition_Structural_IndPred_0__Lean_Elab_Structural_replaceIndPredRecApp___spec__21(ptr noundef %0, ptr readnone captures(none) %1, ptr readnone captures(none) %2, ptr readnone captures(none) %3, ptr readnone captures(none) %4, ptr readnone captures(none) %5, ptr noundef %6) local_unnamed_addr #0 {
  %8 = ptrtoint ptr %0 to i64
  %9 = and i64 %8, 1
  %.not.i = icmp eq i64 %9, 0
  br i1 %.not.i, label %13, label %10

10:                                               ; preds = %7
  %11 = lshr i64 %8, 1
  %12 = trunc i64 %11 to i32
  br label %lean_obj_tag.exit

13:                                               ; preds = %7
  %14 = getelementptr i8, ptr %0, i64 4
  %.val.i = load i32, ptr %14, align 4
  %15 = lshr i32 %.val.i, 24
  br label %lean_obj_tag.exit

lean_obj_tag.exit:                                ; preds = %10, %13
  %.0.i = phi i32 [ %12, %10 ], [ %15, %13 ]
  %16 = icmp eq i32 %.0.i, 0
  %17 = getelementptr inbounds nuw i8, ptr %0, i64 8
  %18 = load ptr, ptr %17, align 8, !tbaa !9
  %19 = ptrtoint ptr %18 to i64
  %20 = and i64 %19, 1
  %.not23 = icmp eq i64 %20, 0
  br i1 %16, label %21, label %31

21:                                               ; preds = %lean_obj_tag.exit
  br i1 %.not23, label %22, label %lean_inc.exit16

22:                                               ; preds = %21
  %.val.i17 = load i32, ptr %18, align 4, !tbaa !4
  %23 = icmp sgt i32 %.val.i17, 0
  br i1 %23, label %24, label %26, !prof !15

24:                                               ; preds = %22
  %25 = add nuw i32 %.val.i17, 1
  store i32 %25, ptr %18, align 4, !tbaa !4
  br label %lean_inc.exit16

26:                                               ; preds = %22
  %.not.i18 = icmp eq i32 %.val.i17, 0
  br i1 %.not.i18, label %lean_inc.exit16, label %27

27:                                               ; preds = %26
  tail call void @lean_inc_ref_cold(ptr noundef nonnull %18) #4
  br label %lean_inc.exit16

lean_inc.exit16:                                  ; preds = %27, %26, %24, %21
  tail call void @lean_inc_heartbeat() #4
  %28 = tail call noalias ptr @mi_malloc_small(i64 noundef 24) #4
  %29 = icmp eq ptr %28, null
  br i1 %29, label %30, label %lean_alloc_ctor.exit

30:                                               ; preds = %lean_inc.exit16
  tail call void @lean_internal_panic_out_of_memory() #5
  unreachable

31:                                               ; preds = %lean_obj_tag.exit
  br i1 %.not23, label %32, label %lean_inc.exit

32:                                               ; preds = %31
  %.val.i19 = load i32, ptr %18, align 4, !tbaa !4
  %33 = icmp sgt i32 %.val.i19, 0
  br i1 %33, label %34, label %36, !prof !15

34:                                               ; preds = %32
  %35 = add nuw i32 %.val.i19, 1
  store i32 %35, ptr %18, align 4, !tbaa !4
  br label %lean_inc.exit

36:                                               ; preds = %32
  %.not.i20 = icmp eq i32 %.val.i19, 0
  br i1 %.not.i20, label %lean_inc.exit, label %37

37:                                               ; preds = %36
  tail call void @lean_inc_ref_cold(ptr noundef nonnull %18) #4
  br label %lean_inc.exit

lean_inc.exit:                                    ; preds = %37, %36, %34, %31
  tail call void @lean_inc_heartbeat() #4
  %38 = tail call noalias ptr @mi_malloc_small(i64 noundef 24) #4
  %39 = icmp eq ptr %38, null
  br i1 %39, label %40, label %lean_alloc_ctor.exit

40:                                               ; preds = %lean_inc.exit
  tail call void @lean_internal_panic_out_of_memory() #5
  unreachable

lean_alloc_ctor.exit:                             ; preds = %lean_inc.exit, %lean_inc.exit16
  %.sink28 = phi ptr [ %28, %lean_inc.exit16 ], [ %38, %lean_inc.exit ]
  %.sink = phi i32 [ 16908312, %lean_inc.exit16 ], [ 131096, %lean_inc.exit ]
  %41 = getelementptr inbounds nuw i8, ptr %.sink28, i64 4
  store i32 1, ptr %.sink28, align 4, !tbaa !4
  store i32 %.sink, ptr %41, align 4
  %42 = getelementptr inbounds nuw i8, ptr %.sink28, i64 8
  store ptr %18, ptr %42, align 8, !tbaa !9
  %43 = getelementptr inbounds nuw i8, ptr %.sink28, i64 16
  store ptr %6, ptr %43, align 8, !tbaa !9
  ret ptr %.sink28
}